; Function Attrs: nounwind uwtable
define internal void @my_NotationDeclHandler(ptr noundef captures(none) %0, ptr noundef %1, ptr noundef %2, ptr noundef %3, ptr noundef %4) #0 {
  %6 = getelementptr i8, ptr %0, i64 72
  %.val = load ptr, ptr %6, align 8, !tbaa !36
  %7 = getelementptr i8, ptr %.val, i64 40
  %8 = load ptr, ptr %7, align 8, !tbaa !14
  %.not38 = icmp eq ptr %8, null
  br i1 %.not38, label %Py_DECREF.exit, label %9

9:                                                ; preds = %5
  %10 = tail call ptr @PyErr_Occurred() #8
  %.not23 = icmp eq ptr %10, null
  br i1 %.not23, label %11, label %Py_DECREF.exit

11:                                               ; preds = %9
  %12 = getelementptr inbounds nuw i8, ptr %0, i64 40
  %13 = load ptr, ptr %12, align 8, !tbaa !29
  %14 = icmp eq ptr %13, null
  br i1 %14, label %flush_character_buffer.exit.thread, label %15

15:                                               ; preds = %11
  %16 = getelementptr inbounds nuw i8, ptr %0, i64 52
  %17 = load i32, ptr %16, align 4, !tbaa !35
  %18 = icmp eq i32 %17, 0
  br i1 %18, label %flush_character_buffer.exit.thread, label %flush_character_buffer.exit

flush_character_buffer.exit:                      ; preds = %15
  %19 = tail call fastcc i32 @call_character_handler(ptr noundef nonnull %0, ptr noundef nonnull %13, i32 noundef %17)
  store i32 0, ptr %16, align 4, !tbaa !35
  %20 = icmp slt i32 %19, 0
  br i1 %20, label %Py_DECREF.exit, label %flush_character_buffer.exit.thread

flush_character_buffer.exit.thread:               ; preds = %11, %15, %flush_character_buffer.exit
  %21 = tail call fastcc ptr @string_intern(ptr noundef nonnull %0, ptr noundef %1)
  %22 = tail call fastcc ptr @string_intern(ptr noundef nonnull %0, ptr noundef %2)
  %23 = tail call fastcc ptr @string_intern(ptr noundef nonnull %0, ptr noundef %3)
  %24 = tail call fastcc ptr @string_intern(ptr noundef nonnull %0, ptr noundef %4)
  %25 = tail call ptr (ptr, ...) @Py_BuildValue(ptr noundef nonnull @.str.50, ptr noundef %21, ptr noundef %22, ptr noundef %23, ptr noundef %24) #8
  %.not24 = icmp eq ptr %25, null
  br i1 %.not24, label %26, label %49

26:                                               ; preds = %flush_character_buffer.exit.thread
  %27 = load ptr, ptr @handler_info, align 16, !tbaa !40
  %.not15.i.i = icmp eq ptr %27, null
  br i1 %.not15.i.i, label %flag_error.exit, label %.lr.ph.i.i

.lr.ph.i.i:                                       ; preds = %26
  %28 = getelementptr inbounds nuw i8, ptr %0, i64 16
  br label %.lr.ph.split.us.i.i

.lr.ph.split.us.i.i:                              ; preds = %Py_DECREF.exit.us.i.i, %.lr.ph.i.i
  %29 = phi ptr [ %45, %Py_DECREF.exit.us.i.i ], [ @handler_info, %.lr.ph.i.i ]
  %30 = phi i64 [ %44, %Py_DECREF.exit.us.i.i ], [ 0, %.lr.ph.i.i ]
  %.016.us.i.i = phi i32 [ %43, %Py_DECREF.exit.us.i.i ], [ 0, %.lr.ph.i.i ]
  %31 = load ptr, ptr %6, align 8, !tbaa !36
  %32 = getelementptr ptr, ptr %31, i64 %30
  %33 = load ptr, ptr %32, align 8, !tbaa !14
  %.not14.us.i.i = icmp eq ptr %33, null
  br i1 %.not14.us.i.i, label %Py_DECREF.exit.us.i.i, label %34

34:                                               ; preds = %.lr.ph.split.us.i.i
  store ptr null, ptr %32, align 8, !tbaa !14
  %35 = load i32, ptr %33, align 8, !tbaa !13
  %.not.i.us.i.i = icmp sgt i32 %35, -1
  br i1 %.not.i.us.i.i, label %36, label %Py_DECREF.exit.us.i.i

36:                                               ; preds = %34
  %37 = add nsw i32 %35, -1
  store i32 %37, ptr %33, align 8, !tbaa !13
  %38 = icmp eq i32 %37, 0
  br i1 %38, label %39, label %Py_DECREF.exit.us.i.i

39:                                               ; preds = %36
  tail call void @_Py_Dealloc(ptr noundef nonnull %33) #8
  br label %Py_DECREF.exit.us.i.i

Py_DECREF.exit.us.i.i:                            ; preds = %39, %36, %34, %.lr.ph.split.us.i.i
  %40 = getelementptr inbounds nuw i8, ptr %29, i64 8
  %41 = load ptr, ptr %40, align 8, !tbaa !56
  %42 = load ptr, ptr %28, align 8, !tbaa !39
  tail call void %41(ptr noundef %42, ptr noundef null) #8
  %43 = add i32 %.016.us.i.i, 1
  %44 = sext i32 %43 to i64
  %45 = getelementptr [64 x %struct.HandlerInfo], ptr @handler_info, i64 0, i64 %44
  %46 = load ptr, ptr %45, align 16, !tbaa !40
  %.not.us.i.i = icmp eq ptr %46, null
  br i1 %.not.us.i.i, label %flag_error.exit, label %.lr.ph.split.us.i.i, !llvm.loop !45

flag_error.exit:                                  ; preds = %Py_DECREF.exit.us.i.i, %26
  %47 = getelementptr inbounds nuw i8, ptr %0, i64 16
  %48 = load ptr, ptr %47, align 8, !tbaa !39
  tail call void @PyExpat_XML_SetExternalEntityRefHandler(ptr noundef %48, ptr noundef nonnull @error_external_entity_ref_handler) #8
  br label %Py_DECREF.exit

49:                                               ; preds = %flush_character_buffer.exit.thread
  %50 = getelementptr inbounds nuw i8, ptr %0, i64 32
  store i32 1, ptr %50, align 8, !tbaa !60
  %51 = load ptr, ptr %6, align 8, !tbaa !36
  %52 = getelementptr i8, ptr %51, i64 40
  %53 = load ptr, ptr %52, align 8, !tbaa !14
  %54 = tail call ptr @PyObject_Call(ptr noundef %53, ptr noundef nonnull %25, ptr noundef null) #8
  %55 = icmp eq ptr %54, null
  br i1 %55, label %56, label %call_with_frame.exit

56:                                               ; preds = %49
  tail call void @_PyTraceback_Add(ptr noundef nonnull @.str.51, ptr noundef nonnull @.str.43, i32 noundef 625) #8
  %57 = getelementptr inbounds nuw i8, ptr %0, i64 16
  %58 = load ptr, ptr %57, align 8, !tbaa !39
  %59 = tail call i32 @PyExpat_XML_StopParser(ptr noundef %58, i8 noundef zeroext 0) #8
  br label %call_with_frame.exit

call_with_frame.exit:                             ; preds = %49, %56
  store i32 0, ptr %50, align 8, !tbaa !60
  %60 = load i32, ptr %25, align 8, !tbaa !13
  %.not.i25 = icmp sgt i32 %60, -1
  br i1 %.not.i25, label %61, label %Py_DECREF.exit26

61:                                               ; preds = %call_with_frame.exit
  %62 = add nsw i32 %60, -1
  store i32 %62, ptr %25, align 8, !tbaa !13
  %63 = icmp eq i32 %62, 0
  br i1 %63, label %64, label %Py_DECREF.exit26

64:                                               ; preds = %61
  tail call void @_Py_Dealloc(ptr noundef nonnull %25) #8
  br label %Py_DECREF.exit26

Py_DECREF.exit26:                                 ; preds = %call_with_frame.exit, %61, %64
  br i1 %55, label %65, label %88

65:                                               ; preds = %Py_DECREF.exit26
  %66 = load ptr, ptr @handler_info, align 16, !tbaa !40
  %.not15.i.i28 = icmp eq ptr %66, null
  br i1 %.not15.i.i28, label %flag_error.exit36, label %.lr.ph.i.i29

.lr.ph.i.i29:                                     ; preds = %65
  %67 = getelementptr inbounds nuw i8, ptr %0, i64 16
  br label %.lr.ph.split.us.i.i30

.lr.ph.split.us.i.i30:                            ; preds = %Py_DECREF.exit.us.i.i34, %.lr.ph.i.i29
  %68 = phi ptr [ %84, %Py_DECREF.exit.us.i.i34 ], [ @handler_info, %.lr.ph.i.i29 ]
  %69 = phi i64 [ %83, %Py_DECREF.exit.us.i.i34 ], [ 0, %.lr.ph.i.i29 ]
  %.016.us.i.i31 = phi i32 [ %82, %Py_DECREF.exit.us.i.i34 ], [ 0, %.lr.ph.i.i29 ]
  %70 = load ptr, ptr %6, align 8, !tbaa !36
  %71 = getelementptr ptr, ptr %70, i64 %69
  %72 = load ptr, ptr %71, align 8, !tbaa !14
  %.not14.us.i.i32 = icmp eq ptr %72, null
  br i1 %.not14.us.i.i32, label %Py_DECREF.exit.us.i.i34, label %73

73:                                               ; preds = %.lr.ph.split.us.i.i30
  store ptr null, ptr %71, align 8, !tbaa !14
  %74 = load i32, ptr %72, align 8, !tbaa !13
  %.not.i.us.i.i33 = icmp sgt i32 %74, -1
  br i1 %.not.i.us.i.i33, label %75, label %Py_DECREF.exit.us.i.i34

75:                                               ; preds = %73
  %76 = add nsw i32 %74, -1
  store i32 %76, ptr %72, align 8, !tbaa !13
  %77 = icmp eq i32 %76, 0
  br i1 %77, label %78, label %Py_DECREF.exit.us.i.i34

78:                                               ; preds = %75
  tail call void @_Py_Dealloc(ptr noundef nonnull %72) #8
  br label %Py_DECREF.exit.us.i.i34

Py_DECREF.exit.us.i.i34:                          ; preds = %78, %75, %73, %.lr.ph.split.us.i.i30
  %79 = getelementptr inbounds nuw i8, ptr %68, i64 8
  %80 = load ptr, ptr %79, align 8, !tbaa !56
  %81 = load ptr, ptr %67, align 8, !tbaa !39
  tail call void %80(ptr noundef %81, ptr noundef null) #8
  %82 = add i32 %.016.us.i.i31, 1
  %83 = sext i32 %82 to i64
  %84 = getelementptr [64 x %struct.HandlerInfo], ptr @handler_info, i64 0, i64 %83
  %85 = load ptr, ptr %84, align 16, !tbaa !40
  %.not.us.i.i35 = icmp eq ptr %85, null
  br i1 %.not.us.i.i35, label %flag_error.exit36, label %.lr.ph.split.us.i.i30, !llvm.loop !45

flag_error.exit36:                                ; preds = %Py_DECREF.exit.us.i.i34, %65
  %86 = getelementptr inbounds nuw i8, ptr %0, i64 16
  %87 = load ptr, ptr %86, align 8, !tbaa !39
  tail call void @PyExpat_XML_SetExternalEntityRefHandler(ptr noundef %87, ptr noundef nonnull @error_external_entity_ref_handler) #8
  br label %Py_DECREF.exit

88:                                               ; preds = %Py_DECREF.exit26
  %89 = load i32, ptr %54, align 8, !tbaa !13
  %.not.i = icmp sgt i32 %89, -1
  br i1 %.not.i, label %90, label %Py_DECREF.exit

90:                                               ; preds = %88
  %91 = add nsw i32 %89, -1
  store i32 %91, ptr %54, align 8, !tbaa !13
  %92 = icmp eq i32 %91, 0
  br i1 %92, label %93, label %Py_DECREF.exit

93:                                               ; preds = %90
  tail call void @_Py_Dealloc(ptr noundef nonnull %54) #8
  br label %Py_DECREF.exit

Py_DECREF.exit:                                   ; preds = %93, %90, %88, %5, %flush_character_buffer.exit, %9, %flag_error.exit36, %flag_error.exit
  ret void
}